target datalayout = "e-m:e-p270:32:32-p271:32:32-p272:64:64-i64:64-i128:128-f80:128-n8:16:32:64-S128"
target triple = "x86_64-unknown-linux-gnu"

%struct.napi_env__ = type <{ ptr, ptr, %"class.v8::Global", %"class.v8::Global.0", %"class.v8impl::RefTracker", %"class.v8impl::RefTracker", %"class.std::unordered_set", %struct.napi_extended_error_info, i32, i32, i32, [4 x i8], ptr, i32, i8, [3 x i8] }>
%"class.v8::Global" = type { %"class.v8::PersistentBase" }
%"class.v8::PersistentBase" = type { %"class.v8::IndirectHandleBase" }
%"class.v8::IndirectHandleBase" = type { ptr }
%"class.v8::Global.0" = type { %"class.v8::PersistentBase.1" }
%"class.v8::PersistentBase.1" = type { %"class.v8::IndirectHandleBase" }
%"class.v8impl::RefTracker" = type { ptr, ptr, ptr }
%"class.std::unordered_set" = type { %"class.std::_Hashtable" }
%"class.std::_Hashtable" = type { ptr, i64, %"struct.std::__detail::_Hash_node_base", i64, %"struct.std::__detail::_Prime_rehash_policy", ptr }
%"struct.std::__detail::_Hash_node_base" = type { ptr }
%"struct.std::__detail::_Prime_rehash_policy" = type { float, i64 }
%struct.napi_extended_error_info = type { ptr, ptr, i32, i32 }
%"class.v8impl::(anonymous namespace)::CallbackWrapper" = type { ptr, ptr, i64, ptr }

; Function Attrs: mustprogress nounwind uwtable
define linkonce_odr dso_local noundef i32 @_Z21napi_clear_last_errorP10napi_env__(ptr noundef %env) #4 comdat {
entry:
  %env.addr = alloca ptr, align 8
  store ptr %env, ptr %env.addr, align 8
  %0 = load ptr, ptr %env.addr, align 8
  %last_error = getelementptr inbounds %struct.napi_env__, ptr %0, i32 0, i32 7
  %error_code = getelementptr inbounds %struct.napi_extended_error_info, ptr %last_error, i32 0, i32 3
  store i32 0, ptr %error_code, align 4
  %1 = load ptr, ptr %env.addr, align 8
  %last_error1 = getelementptr inbounds %struct.napi_env__, ptr %1, i32 0, i32 7
  %engine_error_code = getelementptr inbounds %struct.napi_extended_error_info, ptr %last_error1, i32 0, i32 2
  store i32 0, ptr %engine_error_code, align 8
  %2 = load ptr, ptr %env.addr, align 8
  %last_error2 = getelementptr inbounds %struct.napi_env__, ptr %2, i32 0, i32 7
  %engine_reserved = getelementptr inbounds %struct.napi_extended_error_info, ptr %last_error2, i32 0, i32 1
  store ptr null, ptr %engine_reserved, align 8
  %3 = load ptr, ptr %env.addr, align 8
  %last_error3 = getelementptr inbounds %struct.napi_env__, ptr %3, i32 0, i32 7
  %error_message = getelementptr inbounds %struct.napi_extended_error_info, ptr %last_error3, i32 0, i32 0
  store ptr null, ptr %error_message, align 8
  ret i32 0
}

; Function Attrs: mustprogress nounwind uwtable
define internal noundef ptr @_ZN6v8impl12_GLOBAL__N_115CallbackWrapper4DataEv(ptr noundef nonnull align 8 dereferenceable(32) %this) #4 align 2 {
entry:
  %this.addr = alloca ptr, align 8
  store ptr %this, ptr %this.addr, align 8
  %this1 = load ptr, ptr %this.addr, align 8
  %_data = getelementptr inbounds %"class.v8impl::(anonymous namespace)::CallbackWrapper", ptr %this1, i32 0, i32 3
  %0 = load ptr, ptr %_data, align 8
  ret ptr %0
}

; Function Attrs: mustprogress nounwind uwtable
define internal noundef ptr @_ZN6v8impl12_GLOBAL__N_115CallbackWrapper4ThisEv(ptr noundef nonnull align 8 dereferenceable(32) %this) #4 align 2 {
entry:
  %this.addr = alloca ptr, align 8
  store ptr %this, ptr %this.addr, align 8
  %this1 = load ptr, ptr %this.addr, align 8
  %_this = getelementptr inbounds %"class.v8impl::(anonymous namespace)::CallbackWrapper", ptr %this1, i32 0, i32 1
  %0 = load ptr, ptr %_this, align 8
  ret ptr %0
}

; Function Attrs: mustprogress nounwind uwtable
define internal noundef i64 @_ZN6v8impl12_GLOBAL__N_115CallbackWrapper10ArgsLengthEv(ptr noundef nonnull align 8 dereferenceable(32) %this) #4 align 2 {
entry:
  %this.addr = alloca ptr, align 8
  store ptr %this, ptr %this.addr, align 8
  %this1 = load ptr, ptr %this.addr, align 8
  %_args_length = getelementptr inbounds %"class.v8impl::(anonymous namespace)::CallbackWrapper", ptr %this1, i32 0, i32 2
  %0 = load i64, ptr %_args_length, align 8
  ret i64 %0
}

; Function Attrs: mustprogress nounwind uwtable
define linkonce_odr dso_local noundef i32 @_Z19napi_set_last_errorP10napi_env__11napi_statusjPv(ptr noundef %env, i32 noundef %error_code, i32 noundef %engine_error_code, ptr noundef %engine_reserved) #4 comdat {
entry:
  %env.addr = alloca ptr, align 8
  %error_code.addr = alloca i32, align 4
  %engine_error_code.addr = alloca i32, align 4
  %engine_reserved.addr = alloca ptr, align 8
  store ptr %env, ptr %env.addr, align 8
  store i32 %error_code, ptr %error_code.addr, align 4
  store i32 %engine_error_code, ptr %engine_error_code.addr, align 4
  store ptr %engine_reserved, ptr %engine_reserved.addr, align 8
  %0 = load i32, ptr %error_code.addr, align 4
  %1 = load ptr, ptr %env.addr, align 8
  %last_error = getelementptr inbounds %struct.napi_env__, ptr %1, i32 0, i32 7
  %error_code1 = getelementptr inbounds %struct.napi_extended_error_info, ptr %last_error, i32 0, i32 3
  store i32 %0, ptr %error_code1, align 4
  %2 = load i32, ptr %engine_error_code.addr, align 4
  %3 = load ptr, ptr %env.addr, align 8
  %last_error2 = getelementptr inbounds %struct.napi_env__, ptr %3, i32 0, i32 7
  %engine_error_code3 = getelementptr inbounds %struct.napi_extended_error_info, ptr %last_error2, i32 0, i32 2
  store i32 %2, ptr %engine_error_code3, align 8
  %4 = load ptr, ptr %engine_reserved.addr, align 8
  %5 = load ptr, ptr %env.addr, align 8
  %last_error4 = getelementptr inbounds %struct.napi_env__, ptr %5, i32 0, i32 7
  %engine_reserved5 = getelementptr inbounds %struct.napi_extended_error_info, ptr %last_error4, i32 0, i32 1
  store ptr %4, ptr %engine_reserved5, align 8
  %6 = load i32, ptr %error_code.addr, align 4
  ret i32 %6
}

; Function Attrs: mustprogress nounwind uwtable
define dso_local i32 @napi_get_cb_info(ptr noundef %env, ptr noundef %cbinfo, ptr noundef %argc, ptr noundef %argv, ptr noundef %this_arg, ptr noundef %data) #4 {
entry:
  %retval = alloca i32, align 4
  %env.addr = alloca ptr, align 8
  %cbinfo.addr = alloca ptr, align 8
  %argc.addr = alloca ptr, align 8
  %argv.addr = alloca ptr, align 8
  %this_arg.addr = alloca ptr, align 8
  %data.addr = alloca ptr, align 8
  %info = alloca ptr, align 8
  store ptr %env, ptr %env.addr, align 8
  store ptr %cbinfo, ptr %cbinfo.addr, align 8
  store ptr %argc, ptr %argc.addr, align 8
  store ptr %argv, ptr %argv.addr, align 8
  store ptr %this_arg, ptr %this_arg.addr, align 8
  store ptr %data, ptr %data.addr, align 8
  br label %do.body

do.body:                                          ; preds = %entry
  %0 = load ptr, ptr %env.addr, align 8
  %cmp = icmp eq ptr %0, null
  br i1 %cmp, label %if.then, label %if.end

if.then:                                          ; preds = %do.body
  store i32 1, ptr %retval, align 4
  br label %return

if.end:                                           ; preds = %do.body
  br label %do.end

do.end:                                           ; preds = %if.end
  br label %do.body1

do.body1:                                         ; preds = %do.end
  %1 = load ptr, ptr %cbinfo.addr, align 8
  %cmp2 = icmp ne ptr %1, null
  br i1 %cmp2, label %if.end4, label %if.then3

if.then3:                                         ; preds = %do.body1
  %2 = load ptr, ptr %env.addr, align 8
  %call = call noundef i32 @_Z19napi_set_last_errorP10napi_env__11napi_statusjPv(ptr noundef %2, i32 noundef 1, i32 noundef 0, ptr noundef null)
  store i32 %call, ptr %retval, align 4
  br label %return

if.end4:                                          ; preds = %do.body1
  br label %do.end5

do.end5:                                          ; preds = %if.end4
  %3 = load ptr, ptr %cbinfo.addr, align 8
  store ptr %3, ptr %info, align 8
  %4 = load ptr, ptr %argv.addr, align 8
  %cmp6 = icmp ne ptr %4, null
  br i1 %cmp6, label %if.then7, label %if.end14

if.then7:                                         ; preds = %do.end5
  br label %do.body8

do.body8:                                         ; preds = %if.then7
  %5 = load ptr, ptr %argc.addr, align 8
  %cmp9 = icmp ne ptr %5, null
  br i1 %cmp9, label %if.end12, label %if.then10

if.then10:                                        ; preds = %do.body8
  %6 = load ptr, ptr %env.addr, align 8
  %call11 = call noundef i32 @_Z19napi_set_last_errorP10napi_env__11napi_statusjPv(ptr noundef %6, i32 noundef 1, i32 noundef 0, ptr noundef null)
  store i32 %call11, ptr %retval, align 4
  br label %return

if.end12:                                         ; preds = %do.body8
  br label %do.end13

do.end13:                                         ; preds = %if.end12
  %7 = load ptr, ptr %info, align 8
  %8 = load ptr, ptr %argv.addr, align 8
  %9 = load ptr, ptr %argc.addr, align 8
  %10 = load i64, ptr %9, align 8
  %vtable = load ptr, ptr %7, align 8
  %vfn = getelementptr inbounds ptr, ptr %vtable, i64 1
  %11 = load ptr, ptr %vfn, align 8
  call void %11(ptr noundef nonnull align 8 dereferenceable(32) %7, ptr noundef %8, i64 noundef %10)
  br label %if.end14

if.end14:                                         ; preds = %do.end13, %do.end5
  %12 = load ptr, ptr %argc.addr, align 8
  %cmp15 = icmp ne ptr %12, null
  br i1 %cmp15, label %if.then16, label %if.end18

if.then16:                                        ; preds = %if.end14
  %13 = load ptr, ptr %info, align 8
  %call17 = call noundef i64 @_ZN6v8impl12_GLOBAL__N_115CallbackWrapper10ArgsLengthEv(ptr noundef nonnull align 8 dereferenceable(32) %13)
  %14 = load ptr, ptr %argc.addr, align 8
  store i64 %call17, ptr %14, align 8
  br label %if.end18

if.end18:                                         ; preds = %if.then16, %if.end14
  %15 = load ptr, ptr %this_arg.addr, align 8
  %cmp19 = icmp ne ptr %15, null
  br i1 %cmp19, label %if.then20, label %if.end22

if.then20:                                        ; preds = %if.end18
  %16 = load ptr, ptr %info, align 8
  %call21 = call noundef ptr @_ZN6v8impl12_GLOBAL__N_115CallbackWrapper4ThisEv(ptr noundef nonnull align 8 dereferenceable(32) %16)
  %17 = load ptr, ptr %this_arg.addr, align 8
  store ptr %call21, ptr %17, align 8
  br label %if.end22

if.end22:                                         ; preds = %if.then20, %if.end18
  %18 = load ptr, ptr %data.addr, align 8
  %cmp23 = icmp ne ptr %18, null
  br i1 %cmp23, label %if.then24, label %if.end26

if.then24:                                        ; preds = %if.end22
  %19 = load ptr, ptr %info, align 8
  %call25 = call noundef ptr @_ZN6v8impl12_GLOBAL__N_115CallbackWrapper4DataEv(ptr noundef nonnull align 8 dereferenceable(32) %19)
  %20 = load ptr, ptr %data.addr, align 8
  store ptr %call25, ptr %20, align 8
  br label %if.end26

if.end26:                                         ; preds = %if.then24, %if.end22
  %21 = load ptr, ptr %env.addr, align 8
  %call27 = call noundef i32 @_Z21napi_clear_last_errorP10napi_env__(ptr noundef %21)
  store i32 %call27, ptr %retval, align 4
  br label %return

return:                                           ; preds = %if.end26, %if.then10, %if.then3, %if.then
  %22 = load i32, ptr %retval, align 4
  ret i32 %22
}