; Function Attrs: mustprogress nounwind uwtable
define dso_local noundef i32 @napi_get_cb_info(ptr noundef writeonly %env, ptr noundef %cbinfo, ptr noundef %argc, ptr noundef %argv, ptr noundef writeonly %this_arg, ptr noundef writeonly %data) local_unnamed_addr #3 {
entry:
  %cmp = icmp eq ptr %env, null
  br i1 %cmp, label %return, label %do.body1

do.body1:                                         ; preds = %entry
  %cmp2.not = icmp eq ptr %cbinfo, null
  br i1 %cmp2.not, label %if.then3, label %do.end5

if.then3:                                         ; preds = %do.body1
  %error_code1.i = getelementptr inbounds i8, ptr %env, i64 156
  store i32 1, ptr %error_code1.i, align 4
  %engine_error_code3.i = getelementptr inbounds i8, ptr %env, i64 152
  store i32 0, ptr %engine_error_code3.i, align 8
  %engine_reserved5.i = getelementptr inbounds i8, ptr %env, i64 144
  store ptr null, ptr %engine_reserved5.i, align 8
  br label %return

do.end5:                                          ; preds = %do.body1
  %cmp6.not = icmp eq ptr %argv, null
  %cmp15.not = icmp eq ptr %argc, null
  br i1 %cmp6.not, label %if.end14, label %do.body8

do.body8:                                         ; preds = %do.end5
  br i1 %cmp15.not, label %if.then10, label %if.end14.thread

if.then10:                                        ; preds = %do.body8
  %error_code1.i16 = getelementptr inbounds i8, ptr %env, i64 156
  store i32 1, ptr %error_code1.i16, align 4
  %engine_error_code3.i17 = getelementptr inbounds i8, ptr %env, i64 152
  store i32 0, ptr %engine_error_code3.i17, align 8
  %engine_reserved5.i18 = getelementptr inbounds i8, ptr %env, i64 144
  store ptr null, ptr %engine_reserved5.i18, align 8
  br label %return

if.end14.thread:                                  ; preds = %do.body8
  %0 = load i64, ptr %argc, align 8
  %vtable = load ptr, ptr %cbinfo, align 8
  %vfn = getelementptr inbounds i8, ptr %vtable, i64 8
  %1 = load ptr, ptr %vfn, align 8
  tail call void %1(ptr noundef nonnull align 8 dereferenceable(32) %cbinfo, ptr noundef nonnull %argv, i64 noundef %0) #24
  br label %if.then16

if.end14:                                         ; preds = %do.end5
  br i1 %cmp15.not, label %if.end18, label %if.then16

if.then16:                                        ; preds = %if.end14.thread, %if.end14
  %2 = getelementptr i8, ptr %cbinfo, i64 16
  %cbinfo.val = load i64, ptr %2, align 8
  store i64 %cbinfo.val, ptr %argc, align 8
  br label %if.end18

if.end18:                                         ; preds = %if.then16, %if.end14
  %cmp19.not = icmp eq ptr %this_arg, null
  br i1 %cmp19.not, label %if.end22, label %if.then20

if.then20:                                        ; preds = %if.end18
  %3 = getelementptr i8, ptr %cbinfo, i64 8
  %cbinfo.val14 = load ptr, ptr %3, align 8
  store ptr %cbinfo.val14, ptr %this_arg, align 8
  br label %if.end22

if.end22:                                         ; preds = %if.then20, %if.end18
  %cmp23.not = icmp eq ptr %data, null
  br i1 %cmp23.not, label %if.end26, label %if.then24

if.then24:                                        ; preds = %if.end22
  %4 = getelementptr i8, ptr %cbinfo, i64 24
  %cbinfo.val15 = load ptr, ptr %4, align 8
  store ptr %cbinfo.val15, ptr %data, align 8
  br label %if.end26

if.end26:                                         ; preds = %if.then24, %if.end22
  %last_error.i = getelementptr inbounds i8, ptr %env, i64 136
  tail call void @llvm.memset.p0.i64(ptr noundef nonnull align 8 dereferenceable(24) %last_error.i, i8 0, i64 24, i1 false)
  br label %return

return:                                           ; preds = %entry, %if.end26, %if.then10, %if.then3
  %retval.0 = phi i32 [ 0, %if.end26 ], [ 1, %if.then10 ], [ 1, %if.then3 ], [ 1, %entry ]
  ret i32 %retval.0
}